target datalayout = "e-m:e-p270:32:32-p271:32:32-p272:64:64-i64:64-i128:128-f80:128-n8:16:32:64-S128"
target triple = "x86_64-pc-linux-gnu"

%"struct.cv::legacy::tracking::TrackerMedianFlow::Params" = type { i32, %"class.cv::Size_", i32, %"class.cv::TermCriteria", %"class.cv::Size_", double }
%"class.cv::TermCriteria" = type { i32, i32, double }
%"class.cv::Size_" = type { i32, i32 }

; Function Attrs: inlinehint mustprogress nounwind uwtable
define linkonce_odr hidden void @_ZN2cv12TermCriteriaC2Eiid(ptr noundef nonnull align 8 dereferenceable(16) %0, i32 noundef %1, i32 noundef %2, double noundef %3) unnamed_addr #10 comdat align 2 {
  %5 = alloca ptr, align 8
  %6 = alloca i32, align 4
  %7 = alloca i32, align 4
  %8 = alloca double, align 8
  store ptr %0, ptr %5, align 8, !tbaa !185
  store i32 %1, ptr %6, align 4, !tbaa !13
  store i32 %2, ptr %7, align 4, !tbaa !13
  store double %3, ptr %8, align 8, !tbaa !15
  %9 = load ptr, ptr %5, align 8
  %10 = getelementptr inbounds nuw %"class.cv::TermCriteria", ptr %9, i32 0, i32 0
  %11 = load i32, ptr %6, align 4, !tbaa !13
  store i32 %11, ptr %10, align 8, !tbaa !187
  %12 = getelementptr inbounds nuw %"class.cv::TermCriteria", ptr %9, i32 0, i32 1
  %13 = load i32, ptr %7, align 4, !tbaa !13
  store i32 %13, ptr %12, align 4, !tbaa !188
  %14 = getelementptr inbounds nuw %"class.cv::TermCriteria", ptr %9, i32 0, i32 2
  %15 = load double, ptr %8, align 8, !tbaa !15
  store double %15, ptr %14, align 8, !tbaa !189
  ret void
}

; Function Attrs: inlinehint mustprogress nounwind uwtable
define linkonce_odr hidden void @_ZN2cv5Size_IiEC2Eii(ptr noundef nonnull align 4 dereferenceable(8) %0, i32 noundef %1, i32 noundef %2) unnamed_addr #10 comdat align 2 {
  %4 = alloca ptr, align 8
  %5 = alloca i32, align 4
  %6 = alloca i32, align 4
  store ptr %0, ptr %4, align 8, !tbaa !183
  store i32 %1, ptr %5, align 4, !tbaa !13
  store i32 %2, ptr %6, align 4, !tbaa !13
  %7 = load ptr, ptr %4, align 8
  %8 = getelementptr inbounds nuw %"class.cv::Size_", ptr %7, i32 0, i32 0
  %9 = load i32, ptr %5, align 4, !tbaa !13
  store i32 %9, ptr %8, align 4, !tbaa !173
  %10 = getelementptr inbounds nuw %"class.cv::Size_", ptr %7, i32 0, i32 1
  %11 = load i32, ptr %6, align 4, !tbaa !13
  store i32 %11, ptr %10, align 4, !tbaa !174
  ret void
}

; Function Attrs: inlinehint mustprogress nounwind uwtable
define linkonce_odr hidden void @_ZN2cv12TermCriteriaC2Ev(ptr noundef nonnull align 8 dereferenceable(16) %0) unnamed_addr #10 comdat align 2 {
  %2 = alloca ptr, align 8
  store ptr %0, ptr %2, align 8, !tbaa !185
  %3 = load ptr, ptr %2, align 8
  %4 = getelementptr inbounds nuw %"class.cv::TermCriteria", ptr %3, i32 0, i32 0
  store i32 0, ptr %4, align 8, !tbaa !187
  %5 = getelementptr inbounds nuw %"class.cv::TermCriteria", ptr %3, i32 0, i32 1
  store i32 0, ptr %5, align 4, !tbaa !188
  %6 = getelementptr inbounds nuw %"class.cv::TermCriteria", ptr %3, i32 0, i32 2
  store double 0.000000e+00, ptr %6, align 8, !tbaa !189
  ret void
}

; Function Attrs: inlinehint mustprogress nounwind uwtable
define linkonce_odr hidden void @_ZN2cv5Size_IiEC2Ev(ptr noundef nonnull align 4 dereferenceable(8) %0) unnamed_addr #10 comdat align 2 {
  %2 = alloca ptr, align 8
  store ptr %0, ptr %2, align 8, !tbaa !183
  %3 = load ptr, ptr %2, align 8
  %4 = getelementptr inbounds nuw %"class.cv::Size_", ptr %3, i32 0, i32 0
  store i32 0, ptr %4, align 4, !tbaa !173
  %5 = getelementptr inbounds nuw %"class.cv::Size_", ptr %3, i32 0, i32 1
  store i32 0, ptr %5, align 4, !tbaa !174
  ret void
}

; Function Attrs: mustprogress uwtable
define void @_ZN2cv6legacy8tracking17TrackerMedianFlow6ParamsC2Ev(ptr noundef nonnull align 8 dereferenceable(48) %0) unnamed_addr #4 align 2 {
  %2 = alloca ptr, align 8
  %3 = alloca %"class.cv::Size_", align 4
  %4 = alloca %"class.cv::TermCriteria", align 8
  %5 = alloca %"class.cv::Size_", align 4
  store ptr %0, ptr %2, align 8, !tbaa !10
  %6 = load ptr, ptr %2, align 8
  %7 = getelementptr inbounds nuw %"struct.cv::legacy::tracking::TrackerMedianFlow::Params", ptr %6, i32 0, i32 1
  call void @_ZN2cv5Size_IiEC2Ev(ptr noundef nonnull align 4 dereferenceable(8) %7)
  %8 = getelementptr inbounds nuw %"struct.cv::legacy::tracking::TrackerMedianFlow::Params", ptr %6, i32 0, i32 3
  call void @_ZN2cv12TermCriteriaC2Ev(ptr noundef nonnull align 8 dereferenceable(16) %8)
  %9 = getelementptr inbounds nuw %"struct.cv::legacy::tracking::TrackerMedianFlow::Params", ptr %6, i32 0, i32 4
  call void @_ZN2cv5Size_IiEC2Ev(ptr noundef nonnull align 4 dereferenceable(8) %9)
  %10 = getelementptr inbounds nuw %"struct.cv::legacy::tracking::TrackerMedianFlow::Params", ptr %6, i32 0, i32 0
  store i32 10, ptr %10, align 8, !tbaa !180
  call void @llvm.lifetime.start.p0(i64 8, ptr %3) #3
  call void @_ZN2cv5Size_IiEC2Eii(ptr noundef nonnull align 4 dereferenceable(8) %3, i32 noundef 3, i32 noundef 3)
  %11 = getelementptr inbounds nuw %"struct.cv::legacy::tracking::TrackerMedianFlow::Params", ptr %6, i32 0, i32 1
  call void @llvm.memcpy.p0.p0.i64(ptr align 4 %11, ptr align 4 %3, i64 8, i1 false), !tbaa.struct !64
  call void @llvm.lifetime.end.p0(i64 8, ptr %3) #3
  %12 = getelementptr inbounds nuw %"struct.cv::legacy::tracking::TrackerMedianFlow::Params", ptr %6, i32 0, i32 2
  store i32 5, ptr %12, align 4, !tbaa !181
  call void @llvm.lifetime.start.p0(i64 16, ptr %4) #3
  call void @_ZN2cv12TermCriteriaC2Eiid(ptr noundef nonnull align 8 dereferenceable(16) %4, i32 noundef 3, i32 noundef 20, double noundef 3.000000e-01)
  %13 = getelementptr inbounds nuw %"struct.cv::legacy::tracking::TrackerMedianFlow::Params", ptr %6, i32 0, i32 3
  call void @llvm.memcpy.p0.p0.i64(ptr align 8 %13, ptr align 8 %4, i64 16, i1 false), !tbaa.struct !66
  call void @llvm.lifetime.end.p0(i64 16, ptr %4) #3
  call void @llvm.lifetime.start.p0(i64 8, ptr %5) #3
  call void @_ZN2cv5Size_IiEC2Eii(ptr noundef nonnull align 4 dereferenceable(8) %5, i32 noundef 30, i32 noundef 30)
  %14 = getelementptr inbounds nuw %"struct.cv::legacy::tracking::TrackerMedianFlow::Params", ptr %6, i32 0, i32 4
  call void @llvm.memcpy.p0.p0.i64(ptr align 8 %14, ptr align 4 %5, i64 8, i1 false), !tbaa.struct !64
  call void @llvm.lifetime.end.p0(i64 8, ptr %5) #3
  %15 = getelementptr inbounds nuw %"struct.cv::legacy::tracking::TrackerMedianFlow::Params", ptr %6, i32 0, i32 5
  store double 1.000000e+01, ptr %15, align 8, !tbaa !182
  ret void
}