; Function Attrs: mustprogress nofree norecurse nosync nounwind willreturn memory(argmem: write) uwtable
define void @_ZN2cv6legacy8tracking17TrackerMedianFlow6ParamsC2Ev(ptr noundef nonnull writeonly align 8 captures(none) dereferenceable(48) initializes((0, 48)) %0) unnamed_addr #14 align 2 {
  %2 = getelementptr inbounds nuw i8, ptr %0, i64 4
  %3 = getelementptr inbounds nuw i8, ptr %0, i64 16
  %4 = getelementptr inbounds nuw i8, ptr %0, i64 32
  store i32 10, ptr %0, align 8, !tbaa !155
  store i64 12884901891, ptr %2, align 4
  %5 = getelementptr inbounds nuw i8, ptr %0, i64 12
  store i32 5, ptr %5, align 4, !tbaa !156
  store i32 3, ptr %3, align 8, !tbaa !4
  %.sroa.42.0..sroa_idx = getelementptr inbounds nuw i8, ptr %0, i64 20
  store i32 20, ptr %.sroa.42.0..sroa_idx, align 4, !tbaa !4
  %.sroa.5.0..sroa_idx = getelementptr inbounds nuw i8, ptr %0, i64 24
  store double 3.000000e-01, ptr %.sroa.5.0..sroa_idx, align 8, !tbaa !8
  store i64 128849018910, ptr %4, align 8
  %6 = getelementptr inbounds nuw i8, ptr %0, i64 40
  store double 1.000000e+01, ptr %6, align 8, !tbaa !157
  ret void
}